; Function Attrs: mustprogress nofree norecurse nosync nounwind willreturn memory(argmem: readwrite) uwtable
define internal void @_ZN5faiss12_GLOBAL__N_118IVFBinaryScannerL2INS_22HammingComputerDefaultEE9set_queryEPKh(ptr nocapture noundef nonnull align 8 dereferenceable(48) %0, ptr noundef %1) unnamed_addr #12 align 2 {
  %3 = getelementptr inbounds i8, ptr %0, i64 8
  %4 = getelementptr inbounds i8, ptr %0, i64 24
  %5 = load i64, ptr %4, align 8
  %6 = trunc i64 %5 to i32
  store ptr %1, ptr %3, align 8
  %7 = sdiv i32 %6, 8
  %8 = getelementptr inbounds i8, ptr %0, i64 16
  store i32 %7, ptr %8, align 8
  %9 = srem i32 %6, 8
  %10 = getelementptr inbounds i8, ptr %0, i64 20
  store i32 %9, ptr %10, align 4
  ret void
}